; Function Attrs: mustprogress uwtable
define hidden void @_ZN4lean12type_checker32check_ignore_undefined_universesERKNS_4exprE(ptr dead_on_unwind noalias writable sret(%"class.lean::expr") align 8 %0, ptr noundef nonnull align 8 dereferenceable(48) %1, ptr noundef nonnull align 8 dereferenceable(8) %2) local_unnamed_addr #0 align 2 personality ptr @__gxx_personality_v0 {
  %4 = getelementptr inbounds nuw i8, ptr %1, i64 40
  %5 = load ptr, ptr %4, align 8, !tbaa !156
  store ptr null, ptr %4, align 8, !tbaa !156
  invoke void @_ZN4lean12type_checker15infer_type_coreERKNS_4exprEb(ptr dead_on_unwind writable sret(%"class.lean::expr") align 8 %0, ptr noundef nonnull align 8 dereferenceable(48) %1, ptr noundef nonnull align 8 dereferenceable(8) %2, i1 noundef zeroext false)
          to label %6 unwind label %7

6:                                                ; preds = %3
  store ptr %5, ptr %4, align 8, !tbaa !156
  ret void

7:                                                ; preds = %3
  %8 = landingpad { ptr, i32 }
          cleanup
  store ptr %5, ptr %4, align 8, !tbaa !156
  resume { ptr, i32 } %8
}